target datalayout = "e-m:e-p270:32:32-p271:32:32-p272:64:64-i64:64-i128:128-f80:128-n8:16:32:64-S128"
target triple = "x86_64-pc-linux-gnu"

; Function Attrs: nounwind uwtable
define internal zeroext i1 @RE_execute(ptr noundef %0, ptr noundef %1, i32 noundef %2, i32 noundef %3, ptr noundef %4) #0 {
  %6 = alloca ptr, align 8
  %7 = alloca ptr, align 8
  %8 = alloca i32, align 4
  %9 = alloca i32, align 4
  %10 = alloca ptr, align 8
  %11 = alloca ptr, align 8
  %12 = alloca i32, align 4
  %13 = alloca i8, align 1
  store ptr %0, ptr %6, align 8
  store ptr %1, ptr %7, align 8
  store i32 %2, ptr %8, align 4
  store i32 %3, ptr %9, align 4
  store ptr %4, ptr %10, align 8
  call void @llvm.lifetime.start.p0(i64 8, ptr %11) #8
  call void @llvm.lifetime.start.p0(i64 4, ptr %12) #8
  call void @llvm.lifetime.start.p0(i64 1, ptr %13) #8
  %14 = load i32, ptr %8, align 4
  %15 = add i32 %14, 1
  %16 = sext i32 %15 to i64
  %17 = mul i64 %16, 4
  %18 = call ptr @palloc(i64 noundef %17)
  store ptr %18, ptr %11, align 8
  %19 = load ptr, ptr %7, align 8
  %20 = load ptr, ptr %11, align 8
  %21 = load i32, ptr %8, align 4
  %22 = call i32 @pg_mb2wchar_with_len(ptr noundef %19, ptr noundef %20, i32 noundef %21)
  store i32 %22, ptr %12, align 4
  %23 = load ptr, ptr %6, align 8
  %24 = load ptr, ptr %11, align 8
  %25 = load i32, ptr %12, align 4
  %26 = load i32, ptr %9, align 4
  %27 = load ptr, ptr %10, align 8
  %28 = call zeroext i1 @RE_wchar_execute(ptr noundef %23, ptr noundef %24, i32 noundef %25, i32 noundef 0, i32 noundef %26, ptr noundef %27)
  %29 = zext i1 %28 to i8
  store i8 %29, ptr %13, align 1
  %30 = load ptr, ptr %11, align 8
  call void @pfree(ptr noundef %30)
  %31 = load i8, ptr %13, align 1, !range !6, !noundef !7
  %32 = trunc i8 %31 to i1
  call void @llvm.lifetime.end.p0(i64 1, ptr %13) #8
  call void @llvm.lifetime.end.p0(i64 4, ptr %12) #8
  call void @llvm.lifetime.end.p0(i64 8, ptr %11) #8
  ret i1 %32
}

; Function Attrs: nounwind uwtable
define dso_local zeroext i1 @RE_compile_and_execute(ptr noundef %0, ptr noundef %1, i32 noundef %2, i32 noundef %3, i32 noundef %4, i32 noundef %5, ptr noundef %6) #0 {
  %8 = alloca ptr, align 8
  %9 = alloca ptr, align 8
  %10 = alloca i32, align 4
  %11 = alloca i32, align 4
  %12 = alloca i32, align 4
  %13 = alloca i32, align 4
  %14 = alloca ptr, align 8
  %15 = alloca ptr, align 8
  store ptr %0, ptr %8, align 8
  store ptr %1, ptr %9, align 8
  store i32 %2, ptr %10, align 4
  store i32 %3, ptr %11, align 4
  store i32 %4, ptr %12, align 4
  store i32 %5, ptr %13, align 4
  store ptr %6, ptr %14, align 8
  call void @llvm.lifetime.start.p0(i64 8, ptr %15) #8
  %16 = load i32, ptr %13, align 4
  %17 = icmp slt i32 %16, 2
  br i1 %17, label %18, label %21

18:                                               ; preds = %7
  %19 = load i32, ptr %11, align 4
  %20 = or i32 %19, 16
  store i32 %20, ptr %11, align 4
  br label %21

21:                                               ; preds = %18, %7
  %22 = load ptr, ptr %8, align 8
  %23 = load i32, ptr %11, align 4
  %24 = load i32, ptr %12, align 4
  %25 = call ptr @RE_compile_and_cache(ptr noundef %22, i32 noundef %23, i32 noundef %24)
  store ptr %25, ptr %15, align 8
  %26 = load ptr, ptr %15, align 8
  %27 = load ptr, ptr %9, align 8
  %28 = load i32, ptr %10, align 4
  %29 = load i32, ptr %13, align 4
  %30 = load ptr, ptr %14, align 8
  %31 = call zeroext i1 @RE_execute(ptr noundef %26, ptr noundef %27, i32 noundef %28, i32 noundef %29, ptr noundef %30)
  call void @llvm.lifetime.end.p0(i64 8, ptr %15) #8
  ret i1 %31
}