; Function Attrs: nounwind uwtable
define dso_local zeroext i1 @RE_compile_and_execute(ptr noundef %0, ptr noundef %1, i32 noundef %2, i32 noundef %3, i32 noundef %4, i32 noundef %5, ptr noundef %6) local_unnamed_addr #0 {
  %8 = icmp slt i32 %5, 2
  %9 = or i32 %3, 16
  %spec.select = select i1 %8, i32 %9, i32 %3
  %10 = tail call ptr @RE_compile_and_cache(ptr noundef %0, i32 noundef %spec.select, i32 noundef %4)
  %11 = add i32 %2, 1
  %12 = sext i32 %11 to i64
  %13 = shl nsw i64 %12, 2
  %14 = tail call ptr @palloc(i64 noundef %13) #9
  %15 = tail call i32 @pg_mb2wchar_with_len(ptr noundef %1, ptr noundef %14, i32 noundef %2) #9
  %16 = tail call fastcc zeroext i1 @RE_wchar_execute(ptr noundef %14, i32 noundef %15, i32 noundef 0, i32 noundef %5, ptr noundef %6)
  tail call void @pfree(ptr noundef %14) #9
  ret i1 %16
}